target datalayout = "e-m:e-p270:32:32-p271:32:32-p272:64:64-i64:64-i128:128-f80:128-n8:16:32:64-S128"
target triple = "x86_64-pc-linux-gnu"

%struct.PJconsts = type { ptr, ptr, ptr, ptr, ptr, ptr, ptr, ptr, ptr, ptr, ptr, ptr, i32, ptr, ptr, ptr, ptr, ptr, ptr, ptr, ptr, double, double, double, double, double, double, double, double, double, double, double, double, double, double, double, double, double, double, double, double, double, double, i32, i32, i32, i32, i32, i32, i32, i32, i32, i32, i32, ptr, ptr, ptr, ptr, ptr, ptr, double, double, double, double, double, double, double, double, double, double, double, i32, [7 x double], i32, ptr, ptr, double, double, i32, [4 x i8], %"class.std::shared_ptr", i8, double, i8, %"class.std::__cxx11::basic_string", %"class.std::__cxx11::basic_string", %"class.std::__cxx11::basic_string", i8, %"class.std::vector", i32, %"class.std::vector.3", i32, i8, i8, i8, ptr }
%"class.std::shared_ptr" = type { %"class.std::__shared_ptr" }
%"class.std::__shared_ptr" = type { ptr, %"class.std::__shared_count" }
%"class.std::__shared_count" = type { ptr }
%"class.std::__cxx11::basic_string" = type { %"struct.std::__cxx11::basic_string<char>::_Alloc_hider", i64, %union.anon }
%"struct.std::__cxx11::basic_string<char>::_Alloc_hider" = type { ptr }
%union.anon = type { i64, [8 x i8] }
%"class.std::vector" = type { %"struct.std::_Vector_base" }
%"struct.std::_Vector_base" = type { %"struct.std::_Vector_base<osgeo::proj::operation::GridDescription, std::allocator<osgeo::proj::operation::GridDescription>>::_Vector_impl" }
%"struct.std::_Vector_base<osgeo::proj::operation::GridDescription, std::allocator<osgeo::proj::operation::GridDescription>>::_Vector_impl" = type { %"struct.std::_Vector_base<osgeo::proj::operation::GridDescription, std::allocator<osgeo::proj::operation::GridDescription>>::_Vector_impl_data" }
%"struct.std::_Vector_base<osgeo::proj::operation::GridDescription, std::allocator<osgeo::proj::operation::GridDescription>>::_Vector_impl_data" = type { ptr, ptr, ptr }
%"class.std::vector.3" = type { %"struct.std::_Vector_base.4" }
%"struct.std::_Vector_base.4" = type { %"struct.std::_Vector_base<PJCoordOperation, std::allocator<PJCoordOperation>>::_Vector_impl" }
%"struct.std::_Vector_base<PJCoordOperation, std::allocator<PJCoordOperation>>::_Vector_impl" = type { %"struct.std::_Vector_base<PJCoordOperation, std::allocator<PJCoordOperation>>::_Vector_impl_data" }
%"struct.std::_Vector_base<PJCoordOperation, std::allocator<PJCoordOperation>>::_Vector_impl_data" = type { ptr, ptr, ptr }
%"struct.pj_imoll_ns::pj_imoll_data" = type { [6 x ptr], double, double, double, double }
%struct.PJ_LP = type { double, double }
%struct.PJ_XY = type { double, double }

; Function Attrs: mustprogress uwtable
define internal { double, double } @_ZL15imoll_s_inverse5PJ_XYP8PJconsts(double %0, double %1, ptr noundef %2) #0 {
  %4 = alloca %struct.PJ_LP, align 8
  %5 = alloca %struct.PJ_XY, align 8
  %6 = alloca ptr, align 8
  %7 = alloca ptr, align 8
  %8 = alloca double, align 8
  %9 = alloca i32, align 4
  %10 = alloca i8, align 1
  %11 = alloca %struct.PJ_LP, align 8
  %12 = alloca %struct.PJ_XY, align 8
  %13 = getelementptr inbounds nuw { double, double }, ptr %5, i32 0, i32 0
  store double %0, ptr %13, align 8
  %14 = getelementptr inbounds nuw { double, double }, ptr %5, i32 0, i32 1
  store double %1, ptr %14, align 8
  store ptr %2, ptr %6, align 8, !tbaa !3
  call void @llvm.memset.p0.i64(ptr align 8 %4, i8 0, i64 16, i1 false)
  call void @llvm.lifetime.start.p0(i64 8, ptr %7) #7
  %15 = load ptr, ptr %6, align 8, !tbaa !3
  %16 = getelementptr inbounds nuw %struct.PJconsts, ptr %15, i32 0, i32 11
  %17 = load ptr, ptr %16, align 8, !tbaa !43
  store ptr %17, ptr %7, align 8, !tbaa !41
  call void @llvm.lifetime.start.p0(i64 8, ptr %8) #7
  %18 = call double @sqrt(double noundef 2.000000e+00) #7, !tbaa !54
  store double %18, ptr %8, align 8, !tbaa !56
  call void @llvm.lifetime.start.p0(i64 4, ptr %9) #7
  store i32 0, ptr %9, align 4, !tbaa !54
  %19 = getelementptr inbounds nuw %struct.PJ_XY, ptr %5, i32 0, i32 1
  %20 = load double, ptr %19, align 8, !tbaa !68
  %21 = load double, ptr %8, align 8, !tbaa !56
  %22 = fadd double %21, 1.000000e-10
  %23 = fcmp ogt double %20, %22
  br i1 %23, label %31, label %24

24:                                               ; preds = %3
  %25 = getelementptr inbounds nuw %struct.PJ_XY, ptr %5, i32 0, i32 1
  %26 = load double, ptr %25, align 8, !tbaa !68
  %27 = load double, ptr %8, align 8, !tbaa !56
  %28 = fneg double %27
  %29 = fadd double %28, 1.000000e-10
  %30 = fcmp olt double %26, %29
  br i1 %30, label %31, label %32

31:                                               ; preds = %24, %3
  store i32 0, ptr %9, align 4, !tbaa !54
  br label %73

32:                                               ; preds = %24
  %33 = getelementptr inbounds nuw %struct.PJ_XY, ptr %5, i32 0, i32 1
  %34 = load double, ptr %33, align 8, !tbaa !68
  %35 = fcmp oge double %34, 0.000000e+00
  br i1 %35, label %36, label %44

36:                                               ; preds = %32
  %37 = getelementptr inbounds nuw %struct.PJ_XY, ptr %5, i32 0, i32 0
  %38 = load double, ptr %37, align 8, !tbaa !66
  %39 = load ptr, ptr %7, align 8, !tbaa !41
  %40 = getelementptr inbounds nuw %"struct.pj_imoll_ns::pj_imoll_data", ptr %39, i32 0, i32 1
  %41 = load double, ptr %40, align 8, !tbaa !45
  %42 = fcmp ole double %38, %41
  %43 = select i1 %42, i32 1, i32 2
  store i32 %43, ptr %9, align 4, !tbaa !54
  br label %72

44:                                               ; preds = %32
  %45 = getelementptr inbounds nuw %struct.PJ_XY, ptr %5, i32 0, i32 0
  %46 = load double, ptr %45, align 8, !tbaa !66
  %47 = load ptr, ptr %7, align 8, !tbaa !41
  %48 = getelementptr inbounds nuw %"struct.pj_imoll_ns::pj_imoll_data", ptr %47, i32 0, i32 2
  %49 = load double, ptr %48, align 8, !tbaa !47
  %50 = fcmp ole double %46, %49
  br i1 %50, label %51, label %52

51:                                               ; preds = %44
  store i32 3, ptr %9, align 4, !tbaa !54
  br label %71

52:                                               ; preds = %44
  %53 = getelementptr inbounds nuw %struct.PJ_XY, ptr %5, i32 0, i32 0
  %54 = load double, ptr %53, align 8, !tbaa !66
  %55 = load ptr, ptr %7, align 8, !tbaa !41
  %56 = getelementptr inbounds nuw %"struct.pj_imoll_ns::pj_imoll_data", ptr %55, i32 0, i32 3
  %57 = load double, ptr %56, align 8, !tbaa !48
  %58 = fcmp ole double %54, %57
  br i1 %58, label %59, label %60

59:                                               ; preds = %52
  store i32 4, ptr %9, align 4, !tbaa !54
  br label %70

60:                                               ; preds = %52
  %61 = getelementptr inbounds nuw %struct.PJ_XY, ptr %5, i32 0, i32 0
  %62 = load double, ptr %61, align 8, !tbaa !66
  %63 = load ptr, ptr %7, align 8, !tbaa !41
  %64 = getelementptr inbounds nuw %"struct.pj_imoll_ns::pj_imoll_data", ptr %63, i32 0, i32 4
  %65 = load double, ptr %64, align 8, !tbaa !49
  %66 = fcmp ole double %62, %65
  br i1 %66, label %67, label %68

67:                                               ; preds = %60
  store i32 5, ptr %9, align 4, !tbaa !54
  br label %69

68:                                               ; preds = %60
  store i32 6, ptr %9, align 4, !tbaa !54
  br label %69

69:                                               ; preds = %68, %67
  br label %70

70:                                               ; preds = %69, %59
  br label %71

71:                                               ; preds = %70, %51
  br label %72

72:                                               ; preds = %71, %36
  br label %73

73:                                               ; preds = %72, %31
  %74 = load i32, ptr %9, align 4, !tbaa !54
  %75 = icmp ne i32 %74, 0
  br i1 %75, label %76, label %237

76:                                               ; preds = %73
  call void @llvm.lifetime.start.p0(i64 1, ptr %10) #7
  store i8 0, ptr %10, align 1, !tbaa !69
  %77 = load ptr, ptr %7, align 8, !tbaa !41
  %78 = getelementptr inbounds nuw %"struct.pj_imoll_ns::pj_imoll_data", ptr %77, i32 0, i32 0
  %79 = load i32, ptr %9, align 4, !tbaa !54
  %80 = sub nsw i32 %79, 1
  %81 = sext i32 %80 to i64
  %82 = getelementptr inbounds [6 x ptr], ptr %78, i64 0, i64 %81
  %83 = load ptr, ptr %82, align 8, !tbaa !3
  %84 = getelementptr inbounds nuw %struct.PJconsts, ptr %83, i32 0, i32 62
  %85 = load double, ptr %84, align 8, !tbaa !44
  %86 = getelementptr inbounds nuw %struct.PJ_XY, ptr %5, i32 0, i32 0
  %87 = load double, ptr %86, align 8, !tbaa !66
  %88 = fsub double %87, %85
  store double %88, ptr %86, align 8, !tbaa !66
  %89 = load ptr, ptr %7, align 8, !tbaa !41
  %90 = getelementptr inbounds nuw %"struct.pj_imoll_ns::pj_imoll_data", ptr %89, i32 0, i32 0
  %91 = load i32, ptr %9, align 4, !tbaa !54
  %92 = sub nsw i32 %91, 1
  %93 = sext i32 %92 to i64
  %94 = getelementptr inbounds [6 x ptr], ptr %90, i64 0, i64 %93
  %95 = load ptr, ptr %94, align 8, !tbaa !3
  %96 = getelementptr inbounds nuw %struct.PJconsts, ptr %95, i32 0, i32 63
  %97 = load double, ptr %96, align 8, !tbaa !58
  %98 = getelementptr inbounds nuw %struct.PJ_XY, ptr %5, i32 0, i32 1
  %99 = load double, ptr %98, align 8, !tbaa !68
  %100 = fsub double %99, %97
  store double %100, ptr %98, align 8, !tbaa !68
  call void @llvm.lifetime.start.p0(i64 16, ptr %11) #7
  %101 = load ptr, ptr %7, align 8, !tbaa !41
  %102 = getelementptr inbounds nuw %"struct.pj_imoll_ns::pj_imoll_data", ptr %101, i32 0, i32 0
  %103 = load i32, ptr %9, align 4, !tbaa !54
  %104 = sub nsw i32 %103, 1
  %105 = sext i32 %104 to i64
  %106 = getelementptr inbounds [6 x ptr], ptr %102, i64 0, i64 %105
  %107 = load ptr, ptr %106, align 8, !tbaa !3
  %108 = getelementptr inbounds nuw %struct.PJconsts, ptr %107, i32 0, i32 14
  %109 = load ptr, ptr %108, align 8, !tbaa !50
  call void @llvm.memcpy.p0.p0.i64(ptr align 8 %12, ptr align 8 %5, i64 16, i1 false), !tbaa.struct !65
  %110 = load ptr, ptr %7, align 8, !tbaa !41
  %111 = getelementptr inbounds nuw %"struct.pj_imoll_ns::pj_imoll_data", ptr %110, i32 0, i32 0
  %112 = load i32, ptr %9, align 4, !tbaa !54
  %113 = sub nsw i32 %112, 1
  %114 = sext i32 %113 to i64
  %115 = getelementptr inbounds [6 x ptr], ptr %111, i64 0, i64 %114
  %116 = load ptr, ptr %115, align 8, !tbaa !3
  %117 = getelementptr inbounds nuw { double, double }, ptr %12, i32 0, i32 0
  %118 = load double, ptr %117, align 8
  %119 = getelementptr inbounds nuw { double, double }, ptr %12, i32 0, i32 1
  %120 = load double, ptr %119, align 8
  %121 = call { double, double } %109(double %118, double %120, ptr noundef %116)
  %122 = getelementptr inbounds nuw { double, double }, ptr %11, i32 0, i32 0
  %123 = extractvalue { double, double } %121, 0
  store double %123, ptr %122, align 8
  %124 = getelementptr inbounds nuw { double, double }, ptr %11, i32 0, i32 1
  %125 = extractvalue { double, double } %121, 1
  store double %125, ptr %124, align 8
  call void @llvm.memcpy.p0.p0.i64(ptr align 8 %4, ptr align 8 %11, i64 16, i1 false), !tbaa.struct !65
  call void @llvm.lifetime.end.p0(i64 16, ptr %11) #7
  %126 = load ptr, ptr %7, align 8, !tbaa !41
  %127 = getelementptr inbounds nuw %"struct.pj_imoll_ns::pj_imoll_data", ptr %126, i32 0, i32 0
  %128 = load i32, ptr %9, align 4, !tbaa !54
  %129 = sub nsw i32 %128, 1
  %130 = sext i32 %129 to i64
  %131 = getelementptr inbounds [6 x ptr], ptr %127, i64 0, i64 %130
  %132 = load ptr, ptr %131, align 8, !tbaa !3
  %133 = getelementptr inbounds nuw %struct.PJconsts, ptr %132, i32 0, i32 60
  %134 = load double, ptr %133, align 8, !tbaa !59
  %135 = getelementptr inbounds nuw %struct.PJ_LP, ptr %4, i32 0, i32 0
  %136 = load double, ptr %135, align 8, !tbaa !62
  %137 = fadd double %136, %134
  store double %137, ptr %135, align 8, !tbaa !62
  %138 = load i32, ptr %9, align 4, !tbaa !54
  switch i32 %138, label %229 [
    i32 1, label %139
    i32 2, label %154
    i32 3, label %169
    i32 4, label %184
    i32 5, label %199
    i32 6, label %214
  ]

139:                                              ; preds = %76
  %140 = getelementptr inbounds nuw %struct.PJ_LP, ptr %4, i32 0, i32 0
  %141 = load double, ptr %140, align 8, !tbaa !62
  %142 = fcmp oge double %141, 0xC00921FB54479CB4
  br i1 %142, label %143, label %151

143:                                              ; preds = %139
  %144 = getelementptr inbounds nuw %struct.PJ_LP, ptr %4, i32 0, i32 0
  %145 = load double, ptr %144, align 8, !tbaa !62
  %146 = fcmp ole double %145, 0xBFE657184AD98617
  br i1 %146, label %147, label %151

147:                                              ; preds = %143
  %148 = getelementptr inbounds nuw %struct.PJ_LP, ptr %4, i32 0, i32 1
  %149 = load double, ptr %148, align 8, !tbaa !64
  %150 = fcmp oge double %149, -1.000000e-10
  br label %151

151:                                              ; preds = %147, %143, %139
  %152 = phi i1 [ false, %143 ], [ false, %139 ], [ %150, %147 ]
  %153 = zext i1 %152 to i8
  store i8 %153, ptr %10, align 1, !tbaa !69
  br label %229

154:                                              ; preds = %76
  %155 = getelementptr inbounds nuw %struct.PJ_LP, ptr %4, i32 0, i32 0
  %156 = load double, ptr %155, align 8, !tbaa !62
  %157 = fcmp oge double %156, 0xBFE657184AF502F7
  br i1 %157, label %158, label %166

158:                                              ; preds = %154
  %159 = getelementptr inbounds nuw %struct.PJ_LP, ptr %4, i32 0, i32 0
  %160 = load double, ptr %159, align 8, !tbaa !62
  %161 = fcmp ole double %160, 0x400921FB54479CB4
  br i1 %161, label %162, label %166

162:                                              ; preds = %158
  %163 = getelementptr inbounds nuw %struct.PJ_LP, ptr %4, i32 0, i32 1
  %164 = load double, ptr %163, align 8, !tbaa !64
  %165 = fcmp oge double %164, -1.000000e-10
  br label %166

166:                                              ; preds = %162, %158, %154
  %167 = phi i1 [ false, %158 ], [ false, %154 ], [ %165, %162 ]
  %168 = zext i1 %167 to i8
  store i8 %168, ptr %10, align 1, !tbaa !69
  br label %229

169:                                              ; preds = %76
  %170 = getelementptr inbounds nuw %struct.PJ_LP, ptr %4, i32 0, i32 0
  %171 = load double, ptr %170, align 8, !tbaa !62
  %172 = fcmp oge double %171, 0xC00921FB54479CB4
  br i1 %172, label %173, label %181

173:                                              ; preds = %169
  %174 = getelementptr inbounds nuw %struct.PJ_LP, ptr %4, i32 0, i32 0
  %175 = load double, ptr %174, align 8, !tbaa !62
  %176 = fcmp ole double %175, 0xBFFBECDE5D9A3671
  br i1 %176, label %177, label %181

177:                                              ; preds = %173
  %178 = getelementptr inbounds nuw %struct.PJ_LP, ptr %4, i32 0, i32 1
  %179 = load double, ptr %178, align 8, !tbaa !64
  %180 = fcmp ole double %179, 1.000000e-10
  br label %181

181:                                              ; preds = %177, %173, %169
  %182 = phi i1 [ false, %173 ], [ false, %169 ], [ %180, %177 ]
  %183 = zext i1 %182 to i8
  store i8 %183, ptr %10, align 1, !tbaa !69
  br label %229

184:                                              ; preds = %76
  %185 = getelementptr inbounds nuw %struct.PJ_LP, ptr %4, i32 0, i32 0
  %186 = load double, ptr %185, align 8, !tbaa !62
  %187 = fcmp oge double %186, 0xBFFBECDE5DA7F4E1
  br i1 %187, label %188, label %196

188:                                              ; preds = %184
  %189 = getelementptr inbounds nuw %struct.PJ_LP, ptr %4, i32 0, i32 0
  %190 = load double, ptr %189, align 8, !tbaa !62
  %191 = fcmp ole double %190, 0xBFD657184ACBC7A7
  br i1 %191, label %192, label %196

192:                                              ; preds = %188
  %193 = getelementptr inbounds nuw %struct.PJ_LP, ptr %4, i32 0, i32 1
  %194 = load double, ptr %193, align 8, !tbaa !64
  %195 = fcmp ole double %194, 1.000000e-10
  br label %196

196:                                              ; preds = %192, %188, %184
  %197 = phi i1 [ false, %188 ], [ false, %184 ], [ %195, %192 ]
  %198 = zext i1 %197 to i8
  store i8 %198, ptr %10, align 1, !tbaa !69
  br label %229

199:                                              ; preds = %76
  %200 = getelementptr inbounds nuw %struct.PJ_LP, ptr %4, i32 0, i32 0
  %201 = load double, ptr %200, align 8, !tbaa !62
  %202 = fcmp oge double %201, 0xBFD657184B02C167
  br i1 %202, label %203, label %211

203:                                              ; preds = %199
  %204 = getelementptr inbounds nuw %struct.PJ_LP, ptr %4, i32 0, i32 0
  %205 = load double, ptr %204, align 8, !tbaa !62
  %206 = fcmp ole double %205, 0x3FF657184AEE23BF
  br i1 %206, label %207, label %211

207:                                              ; preds = %203
  %208 = getelementptr inbounds nuw %struct.PJ_LP, ptr %4, i32 0, i32 1
  %209 = load double, ptr %208, align 8, !tbaa !64
  %210 = fcmp ole double %209, 1.000000e-10
  br label %211

211:                                              ; preds = %207, %203, %199
  %212 = phi i1 [ false, %203 ], [ false, %199 ], [ %210, %207 ]
  %213 = zext i1 %212 to i8
  store i8 %213, ptr %10, align 1, !tbaa !69
  br label %229

214:                                              ; preds = %76
  %215 = getelementptr inbounds nuw %struct.PJ_LP, ptr %4, i32 0, i32 0
  %216 = load double, ptr %215, align 8, !tbaa !62
  %217 = fcmp oge double %216, 0x3FF657184AE0654F
  br i1 %217, label %218, label %226

218:                                              ; preds = %214
  %219 = getelementptr inbounds nuw %struct.PJ_LP, ptr %4, i32 0, i32 0
  %220 = load double, ptr %219, align 8, !tbaa !62
  %221 = fcmp ole double %220, 0x400921FB54479CB4
  br i1 %221, label %222, label %226

222:                                              ; preds = %218
  %223 = getelementptr inbounds nuw %struct.PJ_LP, ptr %4, i32 0, i32 1
  %224 = load double, ptr %223, align 8, !tbaa !64
  %225 = fcmp ole double %224, 1.000000e-10
  br label %226

226:                                              ; preds = %222, %218, %214
  %227 = phi i1 [ false, %218 ], [ false, %214 ], [ %225, %222 ]
  %228 = zext i1 %227 to i8
  store i8 %228, ptr %10, align 1, !tbaa !69
  br label %229

229:                                              ; preds = %76, %226, %211, %196, %181, %166, %151
  %230 = load i8, ptr %10, align 1, !tbaa !69, !range !70, !noundef !71
  %231 = trunc i8 %230 to i1
  br i1 %231, label %233, label %232

232:                                              ; preds = %229
  br label %235

233:                                              ; preds = %229
  %234 = load i32, ptr %9, align 4, !tbaa !54
  br label %235

235:                                              ; preds = %233, %232
  %236 = phi i32 [ 0, %232 ], [ %234, %233 ]
  store i32 %236, ptr %9, align 4, !tbaa !54
  call void @llvm.lifetime.end.p0(i64 1, ptr %10) #7
  br label %237

237:                                              ; preds = %235, %73
  %238 = load i32, ptr %9, align 4, !tbaa !54
  %239 = icmp ne i32 %238, 0
  br i1 %239, label %242, label %240

240:                                              ; preds = %237
  %241 = getelementptr inbounds nuw %struct.PJ_LP, ptr %4, i32 0, i32 0
  store double 0x7FF0000000000000, ptr %241, align 8, !tbaa !62
  br label %242

242:                                              ; preds = %240, %237
  %243 = load i32, ptr %9, align 4, !tbaa !54
  %244 = icmp ne i32 %243, 0
  br i1 %244, label %247, label %245

245:                                              ; preds = %242
  %246 = getelementptr inbounds nuw %struct.PJ_LP, ptr %4, i32 0, i32 1
  store double 0x7FF0000000000000, ptr %246, align 8, !tbaa !64
  br label %247

247:                                              ; preds = %245, %242
  call void @llvm.lifetime.end.p0(i64 4, ptr %9) #7
  call void @llvm.lifetime.end.p0(i64 8, ptr %8) #7
  call void @llvm.lifetime.end.p0(i64 8, ptr %7) #7
  %248 = load { double, double }, ptr %4, align 8
  ret { double, double } %248
}