; Function Attrs: mustprogress uwtable
define internal { double, double } @_ZL15imoll_s_inverse5PJ_XYP8PJconsts(double %0, double %1, ptr noundef readonly captures(none) %2) #0 {
  %4 = getelementptr inbounds nuw i8, ptr %2, i64 88
  %5 = load ptr, ptr %4, align 8, !tbaa !40
  %6 = fcmp ogt double %1, 0x3FF6A09E66861B05
  %7 = fcmp olt double %1, 0xBFF6A09E66785C95
  %or.cond70 = or i1 %6, %7
  br i1 %or.cond70, label %71, label %8

8:                                                ; preds = %3
  %9 = fcmp ult double %1, 0.000000e+00
  br i1 %9, label %14, label %10

10:                                               ; preds = %8
  %11 = getelementptr inbounds nuw i8, ptr %5, i64 48
  %12 = load double, ptr %11, align 8, !tbaa !49
  %13 = fcmp ugt double %0, %12
  br i1 %13, label %26, label %select.unfold79

14:                                               ; preds = %8
  %15 = getelementptr inbounds nuw i8, ptr %5, i64 56
  %16 = load double, ptr %15, align 8, !tbaa !51
  %17 = fcmp ugt double %0, %16
  br i1 %17, label %18, label %26

18:                                               ; preds = %14
  %19 = getelementptr inbounds nuw i8, ptr %5, i64 64
  %20 = load double, ptr %19, align 8, !tbaa !52
  %21 = fcmp ugt double %0, %20
  br i1 %21, label %22, label %26

22:                                               ; preds = %18
  %23 = getelementptr inbounds nuw i8, ptr %5, i64 72
  %24 = load double, ptr %23, align 8, !tbaa !53
  %25 = fcmp ugt double %0, %24
  br i1 %25, label %select.unfold, label %26

select.unfold:                                    ; preds = %22
  br label %26

select.unfold79:                                  ; preds = %10
  br label %26

26:                                               ; preds = %10, %22, %select.unfold79, %14, %18, %select.unfold
  %.066.ph = phi i32 [ 5, %22 ], [ 4, %18 ], [ 3, %14 ], [ 2, %10 ], [ 6, %select.unfold ], [ 1, %select.unfold79 ]
  %27 = add nsw i32 %.066.ph, -1
  %28 = zext nneg i32 %27 to i64
  %29 = getelementptr inbounds nuw [6 x ptr], ptr %5, i64 0, i64 %28
  %30 = load ptr, ptr %29, align 8, !tbaa !41
  %31 = getelementptr inbounds nuw i8, ptr %30, i64 456
  %32 = load double, ptr %31, align 8, !tbaa !43
  %33 = fsub double %0, %32
  %34 = getelementptr inbounds nuw i8, ptr %30, i64 464
  %35 = load double, ptr %34, align 8, !tbaa !44
  %36 = fsub double %1, %35
  %37 = getelementptr inbounds nuw i8, ptr %30, i64 112
  %38 = load ptr, ptr %37, align 8, !tbaa !54
  %39 = tail call { double, double } %38(double %33, double %36, ptr noundef %30)
  %40 = extractvalue { double, double } %39, 0
  %41 = extractvalue { double, double } %39, 1
  %42 = load ptr, ptr %29, align 8, !tbaa !41
  %43 = getelementptr inbounds nuw i8, ptr %42, i64 440
  %44 = load double, ptr %43, align 8, !tbaa !45
  %45 = fadd double %40, %44
  switch i32 %.066.ph, label %default.unreachable95 [
    i32 1, label %66
    i32 2, label %46
    i32 3, label %50
    i32 4, label %54
    i32 5, label %58
    i32 6, label %62
  ]

46:                                               ; preds = %26
  %47 = fcmp oge double %45, 0xBFE657184AF502F7
  %48 = fcmp ole double %45, 0x400921FB54479CB4
  %or.cond5 = and i1 %47, %48
  %49 = fcmp oge double %41, -1.000000e-10
  %spec.select71 = select i1 %or.cond5, i1 %49, i1 false
  %.0.fr100 = freeze i1 %spec.select71
  br i1 %.0.fr100, label %70, label %71

50:                                               ; preds = %26
  %51 = fcmp oge double %45, 0xC00921FB54479CB4
  %52 = fcmp ole double %45, 0xBFFBECDE5D9A3671
  %or.cond8 = and i1 %51, %52
  %53 = fcmp ole double %41, 1.000000e-10
  %spec.select72 = select i1 %or.cond8, i1 %53, i1 false
  %.0.fr99 = freeze i1 %spec.select72
  br i1 %.0.fr99, label %70, label %71

54:                                               ; preds = %26
  %55 = fcmp oge double %45, 0xBFFBECDE5DA7F4E1
  %56 = fcmp ole double %45, 0xBFD657184ACBC7A7
  %or.cond11 = and i1 %55, %56
  %57 = fcmp ole double %41, 1.000000e-10
  %spec.select73 = select i1 %or.cond11, i1 %57, i1 false
  %.0.fr98 = freeze i1 %spec.select73
  br i1 %.0.fr98, label %70, label %71

58:                                               ; preds = %26
  %59 = fcmp oge double %45, 0xBFD657184B02C167
  %60 = fcmp ole double %45, 0x3FF657184AEE23BF
  %or.cond14 = and i1 %59, %60
  %61 = fcmp ole double %41, 1.000000e-10
  %spec.select74 = select i1 %or.cond14, i1 %61, i1 false
  %.0.fr97 = freeze i1 %spec.select74
  br i1 %.0.fr97, label %70, label %71

62:                                               ; preds = %26
  %63 = fcmp oge double %45, 0x3FF657184AE0654F
  %64 = fcmp ole double %45, 0x400921FB54479CB4
  %or.cond17 = and i1 %63, %64
  %65 = fcmp ole double %41, 1.000000e-10
  %spec.select75 = select i1 %or.cond17, i1 %65, i1 false
  %.0.fr96 = freeze i1 %spec.select75
  br i1 %.0.fr96, label %70, label %71

default.unreachable95:                            ; preds = %26
  unreachable

66:                                               ; preds = %26
  %67 = fcmp oge double %45, 0xC00921FB54479CB4
  %68 = fcmp ole double %45, 0xBFE657184AD98617
  %or.cond = and i1 %67, %68
  %69 = fcmp oge double %41, -1.000000e-10
  %spec.select = select i1 %or.cond, i1 %69, i1 false
  %.0.fr = freeze i1 %spec.select
  br i1 %.0.fr, label %70, label %71

70:                                               ; preds = %46, %50, %54, %58, %62, %66
  br label %71

71:                                               ; preds = %46, %50, %54, %58, %62, %70, %3, %66
  %72 = phi double [ %45, %70 ], [ 0x7FF0000000000000, %3 ], [ 0x7FF0000000000000, %66 ], [ 0x7FF0000000000000, %62 ], [ 0x7FF0000000000000, %58 ], [ 0x7FF0000000000000, %54 ], [ 0x7FF0000000000000, %50 ], [ 0x7FF0000000000000, %46 ]
  %73 = phi double [ %41, %70 ], [ 0x7FF0000000000000, %3 ], [ 0x7FF0000000000000, %66 ], [ 0x7FF0000000000000, %62 ], [ 0x7FF0000000000000, %58 ], [ 0x7FF0000000000000, %54 ], [ 0x7FF0000000000000, %50 ], [ 0x7FF0000000000000, %46 ]
  %.fca.0.insert = insertvalue { double, double } poison, double %72, 0
  %.fca.1.insert = insertvalue { double, double } %.fca.0.insert, double %73, 1
  ret { double, double } %.fca.1.insert
}